; Function Attrs: mustprogress uwtable
define dso_local noundef ptr @_ZN19MemoryMappedIStream16readMemoryMappedEi(ptr noundef nonnull align 8 captures(none) dereferenceable(64) %0, i32 noundef %1) unnamed_addr #8 align 2 personality ptr @__gxx_personality_v0 {
  %3 = getelementptr inbounds nuw i8, ptr %0, i64 56
  %4 = load i64, ptr %3, align 8, !tbaa !56
  %5 = getelementptr inbounds nuw i8, ptr %0, i64 48
  %6 = load i64, ptr %5, align 8, !tbaa !19
  %.not = icmp ult i64 %4, %6
  br i1 %.not, label %12, label %7

7:                                                ; preds = %2
  %8 = tail call ptr @__cxa_allocate_exception(i64 72) #36
  invoke void @_ZN7Iex_3_48InputExcC1EPKc(ptr noundef nonnull align 8 dereferenceable(72) %8, ptr noundef nonnull @.str.8)
          to label %9 unwind label %10

9:                                                ; preds = %7
  tail call void @__cxa_throw(ptr nonnull %8, ptr nonnull @_ZTIN7Iex_3_48InputExcE, ptr nonnull @_ZN7Iex_3_48InputExcD1Ev) #37
  unreachable

10:                                               ; preds = %7
  %11 = landingpad { ptr, i32 }
          cleanup
  br label %25

12:                                               ; preds = %2
  %13 = sext i32 %1 to i64
  %14 = add i64 %4, %13
  %15 = icmp ugt i64 %14, %6
  br i1 %15, label %16, label %21

16:                                               ; preds = %12
  %17 = tail call ptr @__cxa_allocate_exception(i64 72) #36
  invoke void @_ZN7Iex_3_48InputExcC1EPKc(ptr noundef nonnull align 8 dereferenceable(72) %17, ptr noundef nonnull @.str.12)
          to label %18 unwind label %19

18:                                               ; preds = %16
  tail call void @__cxa_throw(ptr nonnull %17, ptr nonnull @_ZTIN7Iex_3_48InputExcE, ptr nonnull @_ZN7Iex_3_48InputExcD1Ev) #37
  unreachable

19:                                               ; preds = %16
  %20 = landingpad { ptr, i32 }
          cleanup
  br label %25

21:                                               ; preds = %12
  %22 = getelementptr inbounds nuw i8, ptr %0, i64 40
  %23 = load ptr, ptr %22, align 8, !tbaa !17
  %24 = getelementptr inbounds nuw i8, ptr %23, i64 %4
  store i64 %14, ptr %3, align 8, !tbaa !56
  ret ptr %24

25:                                               ; preds = %19, %10
  %.sink = phi ptr [ %17, %19 ], [ %8, %10 ]
  %.pn = phi { ptr, i32 } [ %20, %19 ], [ %11, %10 ]
  tail call void @__cxa_free_exception(ptr nonnull %.sink) #36
  resume { ptr, i32 } %.pn
}